target datalayout = "e-m:e-p270:32:32-p271:32:32-p272:64:64-i64:64-i128:128-f80:128-n8:16:32:64-S128"
target triple = "x86_64-pc-linux-gnu"

%struct.Type_ = type { i32, ptr, ptr, ptr, %union.anon, ptr, ptr, %union.anon.1 }
%union.anon = type { ptr }
%union.anon.1 = type { %struct.TypeFunction }
%struct.TypeFunction = type { ptr, ptr, ptr }

; Function Attrs: nounwind uwtable
define dso_local zeroext i1 @type_is_matching_int(ptr noundef %0, ptr noundef %1) #0 {
  %3 = alloca i32, align 4
  %4 = alloca i32, align 4
  %5 = alloca i32, align 4
  %6 = alloca i1, align 1
  %7 = alloca ptr, align 8
  %8 = alloca ptr, align 8
  %9 = alloca i32, align 4
  %10 = alloca i32, align 4
  store ptr %0, ptr %7, align 8
  store ptr %1, ptr %8, align 8
  %11 = load ptr, ptr %7, align 8
  %12 = getelementptr inbounds %struct.Type_, ptr %11, i32 0, i32 0
  %13 = load i32, ptr %12, align 8
  store i32 %13, ptr %9, align 4
  %14 = load ptr, ptr %8, align 8
  %15 = getelementptr inbounds %struct.Type_, ptr %14, i32 0, i32 0
  %16 = load i32, ptr %15, align 8
  store i32 %16, ptr %10, align 4
  %17 = load i32, ptr %9, align 4
  %18 = load i32, ptr %10, align 4
  %19 = icmp eq i32 %17, %18
  br i1 %19, label %20, label %29

20:                                               ; preds = %2
  %21 = load i32, ptr %9, align 4
  store i32 %21, ptr %5, align 4
  %22 = load i32, ptr %5, align 4
  %23 = icmp uge i32 %22, 3
  br i1 %23, label %24, label %27

24:                                               ; preds = %20
  %25 = load i32, ptr %5, align 4
  %26 = icmp ule i32 %25, 12
  br label %27

27:                                               ; preds = %24, %20
  %28 = phi i1 [ false, %20 ], [ %26, %24 ]
  store i1 %28, ptr %6, align 1
  br label %58

29:                                               ; preds = %2
  %30 = load i32, ptr %9, align 4
  store i32 %30, ptr %4, align 4
  %31 = load i32, ptr %4, align 4
  %32 = icmp uge i32 %31, 3
  br i1 %32, label %33, label %36

33:                                               ; preds = %29
  %34 = load i32, ptr %4, align 4
  %35 = icmp ult i32 %34, 8
  br label %36

36:                                               ; preds = %33, %29
  %37 = phi i1 [ false, %29 ], [ %35, %33 ]
  br i1 %37, label %38, label %43

38:                                               ; preds = %36
  %39 = load i32, ptr %9, align 4
  %40 = add i32 %39, 5
  %41 = load i32, ptr %10, align 4
  %42 = icmp eq i32 %40, %41
  store i1 %42, ptr %6, align 1
  br label %58

43:                                               ; preds = %36
  %44 = load i32, ptr %9, align 4
  store i32 %44, ptr %3, align 4
  %45 = load i32, ptr %3, align 4
  %46 = icmp uge i32 %45, 8
  br i1 %46, label %47, label %50

47:                                               ; preds = %43
  %48 = load i32, ptr %3, align 4
  %49 = icmp ule i32 %48, 12
  br label %50

50:                                               ; preds = %47, %43
  %51 = phi i1 [ false, %43 ], [ %49, %47 ]
  br i1 %51, label %52, label %57

52:                                               ; preds = %50
  %53 = load i32, ptr %10, align 4
  %54 = add i32 %53, 5
  %55 = load i32, ptr %9, align 4
  %56 = icmp eq i32 %54, %55
  store i1 %56, ptr %6, align 1
  br label %58

57:                                               ; preds = %50
  store i1 false, ptr %6, align 1
  br label %58

58:                                               ; preds = %57, %52, %38, %27
  %59 = load i1, ptr %6, align 1
  ret i1 %59
}