; Function Attrs: mustprogress nofree norecurse nosync nounwind willreturn memory(argmem: read) uwtable
define dso_local zeroext i1 @type_is_matching_int(ptr nocapture noundef readonly %0, ptr nocapture noundef readonly %1) local_unnamed_addr #3 {
  %3 = load i32, ptr %0, align 8
  %4 = load i32, ptr %1, align 8
  %5 = icmp eq i32 %3, %4
  %6 = add i32 %3, -3
  br i1 %5, label %7, label %9

7:                                                ; preds = %2
  %8 = icmp ult i32 %6, 10
  br label %20

9:                                                ; preds = %2
  %10 = icmp ult i32 %6, 5
  br i1 %10, label %11, label %14

11:                                               ; preds = %9
  %12 = add nuw nsw i32 %3, 5
  %13 = icmp eq i32 %12, %4
  br label %20

14:                                               ; preds = %9
  %15 = add i32 %3, -8
  %16 = icmp ult i32 %15, 5
  br i1 %16, label %17, label %20

17:                                               ; preds = %14
  %18 = add i32 %4, 5
  %19 = icmp eq i32 %18, %3
  br label %20

20:                                               ; preds = %14, %17, %11, %7
  %.0 = phi i1 [ %8, %7 ], [ %13, %11 ], [ %19, %17 ], [ false, %14 ]
  ret i1 %.0
}